; Function Attrs: nounwind uwtable
define internal range(i32 -1, 1) i32 @graph_read_bloom_index(ptr noundef %0, i64 noundef %1, ptr noundef captures(none) %2) #0 {
  %4 = lshr i64 %1, 2
  %5 = getelementptr inbounds nuw i8, ptr %2, i64 20
  %6 = load i32, ptr %5, align 4, !tbaa !97
  %7 = zext i32 %6 to i64
  %.not = icmp eq i64 %4, %7
  br i1 %.not, label %12, label %8

8:                                                ; preds = %3
  %9 = load i32, ptr @git_gettext_enabled, align 4, !tbaa !47
  %.not4.i = icmp eq i32 %9, 0
  br i1 %.not4.i, label %_.exit, label %10

10:                                               ; preds = %8
  %11 = tail call ptr @dcgettext(ptr noundef null, ptr noundef nonnull @.str.37, i32 noundef 5) #24
  br label %_.exit

_.exit:                                           ; preds = %8, %10
  %.0.i = phi ptr [ %11, %10 ], [ @.str.37, %8 ]
  tail call void (ptr, ...) @warning(ptr noundef %.0.i) #24
  br label %14

12:                                               ; preds = %3
  %13 = getelementptr inbounds nuw i8, ptr %2, i64 176
  store ptr %0, ptr %13, align 8, !tbaa !89
  br label %14

14:                                               ; preds = %12, %_.exit
  %.0 = phi i32 [ -1, %_.exit ], [ 0, %12 ]
  ret i32 %.0
}